; Function Attrs: mustprogress nofree norecurse nosync nounwind willreturn memory(readwrite, inaccessiblemem: none) uwtable
define internal noundef nonnull ptr @_elementtree_TreeBuilder_close(ptr noundef readonly captures(none) %0, ptr readnone captures(none) %1) #6 {
  %3 = getelementptr i8, ptr %0, i64 16
  %.val = load ptr, ptr %3, align 8, !tbaa !92
  %.not.i.i = icmp eq ptr %.val, null
  %_Py_NoneStruct..i.i = select i1 %.not.i.i, ptr @_Py_NoneStruct, ptr %.val
  %4 = load i32, ptr %_Py_NoneStruct..i.i, align 8, !tbaa !21
  %5 = icmp slt i32 %4, 0
  br i1 %5, label %_elementtree_TreeBuilder_close_impl.exit, label %6

6:                                                ; preds = %2
  %7 = add nuw i32 %4, 1
  store i32 %7, ptr %_Py_NoneStruct..i.i, align 8, !tbaa !21
  br label %_elementtree_TreeBuilder_close_impl.exit

_elementtree_TreeBuilder_close_impl.exit:         ; preds = %2, %6
  ret ptr %_Py_NoneStruct..i.i
}